(dp0
S'meta'
p1
(dp2
Vinstagram
p3
(dp4
Vusername
p5
Valyselennon
p6
sVmedia_count
p7
I1304
sVcompleted_initial_fetch
p8
I01
sVlast_fetch_time
p9
V2017-05-26T01:50:08.458Z
p10
sVphotos
p11
(lp12
(dp13
Vimage
p14
Vhttps://scontent.cdninstagram.com/t51.2885-15/s640x640/sh0.08/e35/18721855_1906379332967129_8724436818633687040_n.jpg
p15
sVlink
p16
Vhttps://www.instagram.com/p/BUiahfaDdIhLfeLGsr6kK8Z7eq_R1BsxT2BXSQ0/
p17
sVthumbnail
p18
Vhttps://scontent.cdninstagram.com/t51.2885-15/s150x150/e35/18721855_1906379332967129_8724436818633687040_n.jpg
p19
sVts
p20
V1495763404
p21
sa(dp22
g14
Vhttps://scontent.cdninstagram.com/t51.2885-15/s640x640/sh0.08/e35/18580734_1492336184171948_5290366588648685568_n.jpg
p23
sg16
Vhttps://www.instagram.com/p/BUcLuQWjYDeJcn71Jcj_008XH0Dff8p_D9S2KM0/
p24
sg18
Vhttps://scontent.cdninstagram.com/t51.2885-15/s150x150/e35/18580734_1492336184171948_5290366588648685568_n.jpg
p25
sg20
V1495554318
p26
sa(dp27
g14
Vhttps://scontent.cdninstagram.com/t51.2885-15/s640x640/sh0.08/e35/18444638_1431625580237385_3356352513296039936_n.jpg
p28
sg16
Vhttps://www.instagram.com/p/BUIENXCDh7dCkaPqf10wfxs2yqyU9BLv9y8YRw0/
p29
sg18
Vhttps://scontent.cdninstagram.com/t51.2885-15/s150x150/e35/18444638_1431625580237385_3356352513296039936_n.jpg
p30
sg20
V1494879290
p31
sa(dp32
g14
Vhttps://scontent.cdninstagram.com/t51.2885-15/s640x640/sh0.08/e35/18299845_458888081119560_6318269717052129280_n.jpg
p33
sg16
Vhttps://www.instagram.com/p/BTovQ8LjdEEkBB4XevAa55Ela-F-MqLF0lHJeA0/
p34
sg18
Vhttps://scontent.cdninstagram.com/t51.2885-15/s150x150/e35/18299845_458888081119560_6318269717052129280_n.jpg
p35
sg20
V1493828122
p36
sa(dp37
g14
Vhttps://scontent.cdninstagram.com/t51.2885-15/s640x640/sh0.08/e35/18252419_699705613570148_5669911671775166464_n.jpg
p38
sg16
Vhttps://www.instagram.com/p/BTi7LyNjli8mINpls8SaHvGbZbSB-tAbIT2QxI0/
p39
sg18
Vhttps://scontent.cdninstagram.com/t51.2885-15/s150x150/e35/18252419_699705613570148_5669911671775166464_n.jpg
p40
sg20
V1493633044
p41
sa(dp42
g14
Vhttps://scontent.cdninstagram.com/t51.2885-15/s640x640/sh0.08/e35/17934657_315620972188298_6182448656285696000_n.jpg
p43
sg16
Vhttps://www.instagram.com/p/BTFnFD1jY0jbczPzLOoPmIIOsxaL0m2Ve0uUJM0/
p44
sg18
Vhttps://scontent.cdninstagram.com/t51.2885-15/s150x150/e35/17934657_315620972188298_6182448656285696000_n.jpg
p45
sg20
V1492649425
p46
sa(dp47
g14
Vhttps://scontent.cdninstagram.com/t51.2885-15/s640x640/sh0.08/e35/17587197_1942255772727528_8765338728496365568_n.jpg
p48
sg16
Vhttps://www.instagram.com/p/BSTNF83DnU1tgXA_5GZcLvw2r6DSbqeeKRdWek0/
p49
sg18
Vhttps://scontent.cdninstagram.com/t51.2885-15/s150x150/e35/17587197_1942255772727528_8765338728496365568_n.jpg
p50
sg20
V1490958079
p51
sa(dp52
g14
Vhttps://scontent.cdninstagram.com/t51.2885-15/s640x640/sh0.08/e35/17586930_729183080576707_8532385496272207872_n.jpg
p53
sg16
Vhttps://www.instagram.com/p/BSLRCZxDbSw2AMZ49TPXCb2RHxlLP7lqhtVZVY0/
p54
sg18
Vhttps://scontent.cdninstagram.com/t51.2885-15/s150x150/e35/17586930_729183080576707_8532385496272207872_n.jpg
p55
sg20
V1490691712
p56
sa(dp57
g14
Vhttps://scontent.cdninstagram.com/t51.2885-15/s640x640/sh0.08/e35/17439286_289070258193562_6670036433471799296_n.jpg
p58
sg16
Vhttps://www.instagram.com/p/BSIw_DaDlVTPzf3ThRvub1zqiH5UOUbakulj5M0/
p59
sg18
Vhttps://scontent.cdninstagram.com/t51.2885-15/s150x150/e35/17439286_289070258193562_6670036433471799296_n.jpg
p60
sg20
V1490607798
p61
sa(dp62
g14
Vhttps://scontent.cdninstagram.com/t51.2885-15/s640x640/sh0.08/e35/17439241_617483168446649_5235298781427138560_n.jpg
p63
sg16
Vhttps://www.instagram.com/p/BSALzuDjJ-XzK1-Fg65ctZIxr-WTzqkk9X_sxU0/
p64
sg18
Vhttps://scontent.cdninstagram.com/t51.2885-15/s150x150/e35/17439241_617483168446649_5235298781427138560_n.jpg
p65
sg20
V1490319871
p66
sa(dp67
g14
Vhttps://scontent.cdninstagram.com/t51.2885-15/s640x640/sh0.08/e35/c0.0.720.720/17266168_161539854365634_681800378630537216_n.jpg
p68
sg16
Vhttps://www.instagram.com/p/BR1ZlRzD60yXPgdA8N8EEiHkA4w5yBuqWu9a_Q0/
p69
sg18
Vhttps://scontent.cdninstagram.com/t51.2885-15/s150x150/e35/c0.0.720.720/17266168_161539854365634_681800378630537216_n.jpg
p70
sg20
V1489957994
p71
sa(dp72
g14
Vhttps://scontent.cdninstagram.com/t51.2885-15/s640x640/sh0.08/e35/17333623_287616668317726_5937069035702190080_n.jpg
p73
sg16
Vhttps://www.instagram.com/p/BRqSmzxjKv0yx37SSSLulbOp3Kl8BZW-CQpS3Q0/
p74
sg18
Vhttps://scontent.cdninstagram.com/t51.2885-15/s150x150/e35/17333623_287616668317726_5937069035702190080_n.jpg
p75
sg20
V1489585238
p76
sa(dp77
g14
Vhttps://scontent.cdninstagram.com/t51.2885-15/s640x640/sh0.08/e35/17266155_1280947458657454_4375852890372177920_n.jpg
p78
sg16
Vhttps://www.instagram.com/p/BRmMNkYDxT31hejrtIoKFdNtlgnp76vwcoEw9Q0/
p79
sg18
Vhttps://scontent.cdninstagram.com/t51.2885-15/s150x150/e35/17266155_1280947458657454_4375852890372177920_n.jpg
p80
sg20
V1489447668
p81
sa(dp82
g14
Vhttps://scontent.cdninstagram.com/t51.2885-15/s640x640/e15/c134.0.812.812/17126346_108436749690597_8925770394250510336_n.jpg
p83
sg16
Vhttps://www.instagram.com/p/BRkmM7NDJL-rqrE7XsDEnb1YQVV7XPr-E9tzAc0/
p84
sg18
Vhttps://scontent.cdninstagram.com/t51.2885-15/s150x150/e15/c134.0.812.812/17126346_108436749690597_8925770394250510336_n.jpg
p85
sg20
V1489394185
p86
sa(dp87
g14
Vhttps://scontent.cdninstagram.com/t51.2885-15/s640x640/sh0.08/e35/17265532_1334048479988234_7705355119264530432_n.jpg
p88
sg16
Vhttps://www.instagram.com/p/BRkch4mj-5KAdqVn-2ZkUo-nTTHerOCZRAOFw80/
p89
sg18
Vhttps://scontent.cdninstagram.com/t51.2885-15/s150x150/e35/17265532_1334048479988234_7705355119264530432_n.jpg
p90
sg20
V1489389114
p91
sa(dp92
g14
Vhttps://scontent.cdninstagram.com/t51.2885-15/s640x640/sh0.08/e35/c120.0.720.720/17267656_420659164947882_8885378653488152576_n.jpg
p93
sg16
Vhttps://www.instagram.com/p/BRgeQApjok1K6JVIUYQk1UMZY_4oZ_8mrn3yAc0/
p94
sg18
Vhttps://scontent.cdninstagram.com/t51.2885-15/s150x150/e35/c120.0.720.720/17267656_420659164947882_8885378653488152576_n.jpg
p95
sg20
V1489255798
p96
sa(dp97
g14
Vhttps://scontent.cdninstagram.com/t51.2885-15/s640x640/sh0.08/e35/17126205_1689875141310232_3916536524958597120_n.jpg
p98
sg16
Vhttps://www.instagram.com/p/BRgdu7LDvjO6vIttMUwOrSmEHPearFIuYCbtAU0/
p99
sg18
Vhttps://scontent.cdninstagram.com/t51.2885-15/s150x150/e35/17126205_1689875141310232_3916536524958597120_n.jpg
p100
sg20
V1489255527
p101
sa(dp102
g14
Vhttps://scontent.cdninstagram.com/t51.2885-15/s640x640/sh0.08/e35/c136.0.750.750/17125773_1893144087626979_7207271614533074944_n.jpg
p103
sg16
Vhttps://www.instagram.com/p/BRb-olyj_9YvSZ_UEczVBdTSLhoWcTZ0h-kknI0/
p104
sg18
Vhttps://scontent.cdninstagram.com/t51.2885-15/s150x150/e35/c136.0.750.750/17125773_1893144087626979_7207271614533074944_n.jpg
p105
sg20
V1489105005
p106
sa(dp107
g14
Vhttps://scontent.cdninstagram.com/t51.2885-15/s640x640/sh0.08/e35/c152.0.750.750/17266009_989338054535600_1172270834786500608_n.jpg
p108
sg16
Vhttps://www.instagram.com/p/BRb-QgBDAphreXzfXCoTT0165duVt5kiKI8Cwo0/
p109
sg18
Vhttps://scontent.cdninstagram.com/t51.2885-15/s150x150/e35/c152.0.750.750/17266009_989338054535600_1172270834786500608_n.jpg
p110
sg20
V1489104807
p111
sa(dp112
g14
Vhttps://scontent.cdninstagram.com/t51.2885-15/s640x640/sh0.08/e35/c2.0.1075.1075/17077325_1327925083953010_8306699279993405440_n.jpg
p113
sg16
Vhttps://www.instagram.com/p/BRb9raWj2YJbNjeSLHukrnW8Q8DVEKocG51zf40/
p114
sg18
Vhttps://scontent.cdninstagram.com/t51.2885-15/s150x150/e35/c2.0.1075.1075/17077325_1327925083953010_8306699279993405440_n.jpg
p115
sg20
V1489104504
p116
sa(dp117
g14
Vhttps://scontent.cdninstagram.com/t51.2885-15/s640x640/sh0.08/e35/16790216_203875263422321_7148979467988238336_n.jpg
p118
sg16
Vhttps://www.instagram.com/p/BQ5IUEej7G1_Jq99HcObPXYNMd64Iq100FEzJc0/
p119
sg18
Vhttps://scontent.cdninstagram.com/t51.2885-15/s150x150/e35/16790216_203875263422321_7148979467988238336_n.jpg
p120
sg20
V1487935674
p121
sa(dp122
g14
Vhttps://scontent.cdninstagram.com/t51.2885-15/s640x640/sh0.08/e35/16789010_1445737812117055_8874394351938043904_n.jpg
p123
sg16
Vhttps://www.instagram.com/p/BQuuFbJDKvsFLQYNYYf4M8uUcXXV9Gfed9bTT80/
p124
sg18
Vhttps://scontent.cdninstagram.com/t51.2885-15/s150x150/e35/16789010_1445737812117055_8874394351938043904_n.jpg
p125
sg20
V1487586379
p126
sa(dp127
g14
Vhttps://scontent.cdninstagram.com/t51.2885-15/s640x640/sh0.08/e35/16229440_1918322331735941_856966324830601216_n.jpg
p128
sg16
Vhttps://www.instagram.com/p/BQpy5xvjZuTizG5KKtwfOtk53ZIUKoXl3LyEf40/
p129
sg18
Vhttps://scontent.cdninstagram.com/t51.2885-15/s150x150/e35/16229440_1918322331735941_856966324830601216_n.jpg
p130
sg20
V1487421132
p131
sa(dp132
g14
Vhttps://scontent.cdninstagram.com/t51.2885-15/s640x640/sh0.08/e35/16790050_1200590740053618_5207601958969409536_n.jpg
p133
sg16
Vhttps://www.instagram.com/p/BQm767wD2lkNLuyZnQbRSW0rH5aBI89Z8j2h3Q0/
p134
sg18
Vhttps://scontent.cdninstagram.com/t51.2885-15/s150x150/e35/16790050_1200590740053618_5207601958969409536_n.jpg
p135
sg20
V1487325197
p136
sa(dp137
g14
Vhttps://scontent.cdninstagram.com/t51.2885-15/s640x640/sh0.08/e35/16463899_1851973441687923_3757815746541912064_n.jpg
p138
sg16
Vhttps://www.instagram.com/p/BQWq_a9lCAAPPwfj-g8jWYQNhQG2K0eqGmmhWs0/
p139
sg18
Vhttps://scontent.cdninstagram.com/t51.2885-15/s150x150/e35/16463899_1851973441687923_3757815746541912064_n.jpg
p140
sg20
V1486779450
p141
sa(dp142
g14
Vhttps://scontent.cdninstagram.com/t51.2885-15/s640x640/sh0.08/e35/16465493_1208432695900587_8651474627173810176_n.jpg
p143
sg16
Vhttps://www.instagram.com/p/BQWmUygFKV0-AX8vcpljVcA08O8lsmUexF0j2M0/
p144
sg18
Vhttps://scontent.cdninstagram.com/t51.2885-15/s150x150/e35/16465493_1208432695900587_8651474627173810176_n.jpg
p145
sg20
V1486777004
p146
sa(dp147
g14
Vhttps://scontent.cdninstagram.com/t51.2885-15/s640x640/sh0.08/e35/16464423_1609208092439222_7963382568131231744_n.jpg
p148
sg16
Vhttps://www.instagram.com/p/BQD9XLDFihp2czZF_NG4knYQQsENN6NSj1YhyU0/
p149
sg18
Vhttps://scontent.cdninstagram.com/t51.2885-15/s150x150/e35/16464423_1609208092439222_7963382568131231744_n.jpg
p150
sg20
V1486151548
p151
sa(dp152
g14
Vhttps://scontent.cdninstagram.com/t51.2885-15/s640x640/sh0.08/e35/16464240_1113942708735312_7470479189095743488_n.jpg
p153
sg16
Vhttps://www.instagram.com/p/BP_b1wylbVL--zWCIgF2s1dlGfVWCgI7LoiLHs0/
p154
sg18
Vhttps://scontent.cdninstagram.com/t51.2885-15/s150x150/e35/16464240_1113942708735312_7470479189095743488_n.jpg
p155
sg20
V1485999755
p156
sa(dp157
g14
Vhttps://scontent.cdninstagram.com/t51.2885-15/s640x640/sh0.08/e35/c25.0.700.700/16122751_1871027546513328_1008179770996817920_n.jpg
p158
sg16
Vhttps://www.instagram.com/p/BP7Nicalca1IvilNmjwunIe6a3Aqy2yX-qd2FE0/
p159
sg18
Vhttps://scontent.cdninstagram.com/t51.2885-15/s150x150/e35/c25.0.700.700/16122751_1871027546513328_1008179770996817920_n.jpg
p160
sg20
V1485858039
p161
sa(dp162
g14
Vhttps://scontent.cdninstagram.com/t51.2885-15/s640x640/sh0.08/e35/c13.0.724.724/16124104_1959326660957775_7350545766407995392_n.jpg
p163
sg16
Vhttps://www.instagram.com/p/BP3mCqSF5Zm2wW1ykW_q_cnVEPdpUovuOh9AMo0/
p164
sg18
Vhttps://scontent.cdninstagram.com/t51.2885-15/s150x150/e35/c13.0.724.724/16124104_1959326660957775_7350545766407995392_n.jpg
p165
sg20
V1485736668
p166
sasVprofile_picture
p167
Vhttps://scontent.cdninstagram.com/t51.2885-19/s150x150/15877247_1751928785124660_3786014311374127104_n.jpg
p168
ssVcommon_likes
p169
(lp170
sVcommon_connections
p171
(lp172
sVteasers
p173
(lp174
(dp175
Vtype
p176
Vschool
p177
sVstring
p178
VStockton University
p179
sa(dp180
g176
Vinstagram
p181
sg178
V1304 Instagram Photos
p182
sasVcommon_friends
p183
(lp184
sVcontent_hash
p185
VvGghert17IRI6MiZFVETGYSkVFqETgIMAhRghA9HgJf51
p186
sVconnection_count
p187
I1167
sVbadges
p188
(lp189
sVdistance_mi
p190
I10
sVspotify_theme_track
p191
(dp192
Valbum
p193
(dp194
Vimages
p195
(lp196
(dp197
Vurl
p198
Vhttps://i.scdn.co/image/fa723e93606cb5b5d5d14a01c397807bdc05ef1f
p199
sVwidth
p200
I640
sVheight
p201
I640
sa(dp202
g198
Vhttps://i.scdn.co/image/e4ff86d36eb8a8842f7fce8295c64cc60fa21c18
p203
sg200
I300
sg201
I300
sa(dp204
g198
Vhttps://i.scdn.co/image/46e5641fd12fb297801f987137d193c3548a3654
p205
sg200
I64
sg201
I64
sasVid
p206
V0IUCAsckpNyV4wHKIHQawC
p207
sVname
p208
VIt Ain't Me (with Selena Gomez)
p209
ssg208
VIt Ain't Me (with Selena Gomez)
p210
sVuri
p211
Vspotify:track:3eR23VReFzcdmS7TYCrhCe
p212
sVpreview_url
p213
Vhttps://p.scdn.co/mp3-preview/14c4f664755de848314b8acafae1f18fcc4f8660?cid=b06a803d686e4612bdc074e786e94062
p214
sVartists
p215
(lp216
(dp217
g206
V23fqKkggKUBHNkbKtXEls4
p218
sg208
VKygo
p219
sa(dp220
g206
V0C8ZW7ezQVs4URX5aX7Kqx
p221
sg208
VSelena Gomez
p222
sasg206
V3eR23VReFzcdmS7TYCrhCe
p223
ssVbio
p224
VI just want to steal your hoodies. \u000a\u000aI enjoy living a healthy lifestyle and going to the gym. I eat healthy, except for Saturday!\u000a\u000aI'm an animal lover. Proud single parent to my furbabies. (No human kids.)\u000a\u000aI'm addicted to peanut butter. \u000a\u000aI enjoy being outdoors, country music and wine. \u000a\u000aI'm a tech in the emergency room.\u000a\u000aNo, I don't like your man bun.
p225
sVjobs
p226
(lp227
sVbirth_date_info
p228
Vfuzzy birthdate active, not displaying real birth_date
p229
sVteaser
p230
(dp231
g176
Vschool
p232
sg178
VStockton University
p233
ssVping_time
p234
V2014-12-09T00:00:00.000Z
p235
sVschools
p236
(lp237
(dp238
g206
V108097639212214
p239
sg208
VStockton University
p240
sasg208
VA'lyse
p241
sVuncommon_interests
p242
(lp243
sVgender
p244
I1
sVcommon_interests
p245
(lp246
sVs_number
p247
I41452083
sVbirth_date
p248
V1987-06-02T02:48:07.596Z
p249
sV_id
p250
V555d10c1beb36f72509b3c63
p251
ssS'phis'
p252
(dp253
s.